; Function Attrs: mustprogress uwtable
define hidden noundef zeroext i1 @_ZN4cvc58internal6theory7strings22StringToRegExpTypeRule14computeIsConstEPNS0_11NodeManagerENS0_12NodeTemplateILb0EEE(ptr noundef readnone captures(none) %0, ptr noundef readonly captures(none) %1) local_unnamed_addr #3 align 2 personality ptr @__gxx_personality_v0 {
  %3 = alloca %"class.cvc5::internal::NodeTemplate", align 8
  call void @llvm.lifetime.start.p0(i64 8, ptr nonnull %3) #17
  tail call void @llvm.experimental.noalias.scope.decl(metadata !233)
  %4 = load ptr, ptr %1, align 8, !tbaa !18, !noalias !233
  %5 = getelementptr inbounds nuw i8, ptr %4, i64 8
  %6 = load i64, ptr %5, align 8, !noalias !233
  %7 = trunc i64 %6 to i32
  %8 = and i32 %7, 1023
  %9 = icmp eq i32 %8, 1023
  %10 = select i1 %9, i32 -1, i32 %8
  %11 = tail call noundef i32 @_ZN4cvc58internal4kind10metaKindOfENS1_6Kind_tE(i32 noundef %10), !noalias !233
  %12 = icmp eq i32 %11, 2
  %13 = getelementptr inbounds nuw i8, ptr %4, i64 24
  %14 = zext i1 %12 to i64
  %15 = getelementptr inbounds nuw [0 x ptr], ptr %13, i64 0, i64 %14
  %16 = load ptr, ptr %15, align 8, !tbaa !17, !noalias !233
  store ptr %16, ptr %3, align 8, !tbaa !18, !alias.scope !233
  %17 = call noundef zeroext i1 @_ZNK4cvc58internal12NodeTemplateILb0EE7isConstEv(ptr noundef nonnull align 8 dereferenceable(8) %3)
  call void @llvm.lifetime.end.p0(i64 8, ptr nonnull %3) #17
  ret i1 %17
}